target datalayout = "e-m:e-p270:32:32-p271:32:32-p272:64:64-i64:64-i128:128-f80:128-n8:16:32:64-S128"
target triple = "x86_64-pc-linux-gnu"

%"class.draco::IndexType" = type { i32 }
%"class.draco::IndexType.30" = type { i32 }
%"class.draco::MeshAttributeCornerTable" = type { %"class.std::vector", %"class.std::vector", i8, %"class.std::vector.0", %"class.std::vector.4", %"class.std::vector.9", ptr, %"class.draco::ValenceCache" }
%"class.std::vector" = type { %"struct.std::_Bvector_base" }
%"struct.std::_Bvector_base" = type { %"struct.std::_Bvector_base<std::allocator<bool>>::_Bvector_impl" }
%"struct.std::_Bvector_base<std::allocator<bool>>::_Bvector_impl" = type { %"struct.std::_Bvector_base<std::allocator<bool>>::_Bvector_impl_data" }
%"struct.std::_Bvector_base<std::allocator<bool>>::_Bvector_impl_data" = type { %"struct.std::_Bit_iterator", %"struct.std::_Bit_iterator", ptr }
%"struct.std::_Bit_iterator" = type { %"struct.std::_Bit_iterator_base.base", [4 x i8] }
%"struct.std::_Bit_iterator_base.base" = type <{ ptr, i32 }>
%"class.std::vector.0" = type { %"struct.std::_Vector_base" }
%"struct.std::_Vector_base" = type { %"struct.std::_Vector_base<draco::IndexType<unsigned int, draco::VertexIndex_tag_type_>, std::allocator<draco::IndexType<unsigned int, draco::VertexIndex_tag_type_>>>::_Vector_impl" }
%"struct.std::_Vector_base<draco::IndexType<unsigned int, draco::VertexIndex_tag_type_>, std::allocator<draco::IndexType<unsigned int, draco::VertexIndex_tag_type_>>>::_Vector_impl" = type { %"struct.std::_Vector_base<draco::IndexType<unsigned int, draco::VertexIndex_tag_type_>, std::allocator<draco::IndexType<unsigned int, draco::VertexIndex_tag_type_>>>::_Vector_impl_data" }
%"struct.std::_Vector_base<draco::IndexType<unsigned int, draco::VertexIndex_tag_type_>, std::allocator<draco::IndexType<unsigned int, draco::VertexIndex_tag_type_>>>::_Vector_impl_data" = type { ptr, ptr, ptr }
%"class.std::vector.4" = type { %"struct.std::_Vector_base.5" }
%"struct.std::_Vector_base.5" = type { %"struct.std::_Vector_base<draco::IndexType<unsigned int, draco::CornerIndex_tag_type_>, std::allocator<draco::IndexType<unsigned int, draco::CornerIndex_tag_type_>>>::_Vector_impl" }
%"struct.std::_Vector_base<draco::IndexType<unsigned int, draco::CornerIndex_tag_type_>, std::allocator<draco::IndexType<unsigned int, draco::CornerIndex_tag_type_>>>::_Vector_impl" = type { %"struct.std::_Vector_base<draco::IndexType<unsigned int, draco::CornerIndex_tag_type_>, std::allocator<draco::IndexType<unsigned int, draco::CornerIndex_tag_type_>>>::_Vector_impl_data" }
%"struct.std::_Vector_base<draco::IndexType<unsigned int, draco::CornerIndex_tag_type_>, std::allocator<draco::IndexType<unsigned int, draco::CornerIndex_tag_type_>>>::_Vector_impl_data" = type { ptr, ptr, ptr }
%"class.std::vector.9" = type { %"struct.std::_Vector_base.10" }
%"struct.std::_Vector_base.10" = type { %"struct.std::_Vector_base<draco::IndexType<unsigned int, draco::AttributeValueIndex_tag_type_>, std::allocator<draco::IndexType<unsigned int, draco::AttributeValueIndex_tag_type_>>>::_Vector_impl" }
%"struct.std::_Vector_base<draco::IndexType<unsigned int, draco::AttributeValueIndex_tag_type_>, std::allocator<draco::IndexType<unsigned int, draco::AttributeValueIndex_tag_type_>>>::_Vector_impl" = type { %"struct.std::_Vector_base<draco::IndexType<unsigned int, draco::AttributeValueIndex_tag_type_>, std::allocator<draco::IndexType<unsigned int, draco::AttributeValueIndex_tag_type_>>>::_Vector_impl_data" }
%"struct.std::_Vector_base<draco::IndexType<unsigned int, draco::AttributeValueIndex_tag_type_>, std::allocator<draco::IndexType<unsigned int, draco::AttributeValueIndex_tag_type_>>>::_Vector_impl_data" = type { ptr, ptr, ptr }
%"class.draco::ValenceCache" = type { ptr, %"class.draco::IndexTypeVector", %"class.draco::IndexTypeVector.19" }
%"class.draco::IndexTypeVector" = type { %"class.std::vector.14" }
%"class.std::vector.14" = type { %"struct.std::_Vector_base.15" }
%"struct.std::_Vector_base.15" = type { %"struct.std::_Vector_base<signed char, std::allocator<signed char>>::_Vector_impl" }
%"struct.std::_Vector_base<signed char, std::allocator<signed char>>::_Vector_impl" = type { %"struct.std::_Vector_base<signed char, std::allocator<signed char>>::_Vector_impl_data" }
%"struct.std::_Vector_base<signed char, std::allocator<signed char>>::_Vector_impl_data" = type { ptr, ptr, ptr }
%"class.draco::IndexTypeVector.19" = type { %"class.std::vector.20" }
%"class.std::vector.20" = type { %"struct.std::_Vector_base.21" }
%"struct.std::_Vector_base.21" = type { %"struct.std::_Vector_base<int, std::allocator<int>>::_Vector_impl" }
%"struct.std::_Vector_base<int, std::allocator<int>>::_Vector_impl" = type { %"struct.std::_Vector_base<int, std::allocator<int>>::_Vector_impl_data" }
%"struct.std::_Vector_base<int, std::allocator<int>>::_Vector_impl_data" = type { ptr, ptr, ptr }
%"class.draco::VertexRingIterator" = type <{ ptr, %"class.draco::IndexType.30", %"class.draco::IndexType.30", i8, [7 x i8] }>

@_ZN5dracoL19kInvalidVertexIndexE = internal constant %"class.draco::IndexType" { i32 -1 }, align 4
@_ZN5dracoL19kInvalidCornerIndexE = internal constant %"class.draco::IndexType.30" { i32 -1 }, align 4

; Function Attrs: mustprogress nounwind uwtable
define linkonce_odr noundef nonnull align 4 dereferenceable(4) ptr @_ZNKSt6vectorIN5draco9IndexTypeIjNS0_21CornerIndex_tag_type_EEESaIS3_EEixEm(ptr noundef nonnull align 8 dereferenceable(24) %0, i64 noundef %1) #5 comdat align 2 {
  %3 = alloca ptr, align 8
  %4 = alloca i64, align 8
  store ptr %0, ptr %3, align 8, !tbaa !53
  store i64 %1, ptr %4, align 8, !tbaa !69
  %5 = load ptr, ptr %3, align 8
  %6 = getelementptr inbounds nuw %"struct.std::_Vector_base.5", ptr %5, i32 0, i32 0
  %7 = getelementptr inbounds nuw %"struct.std::_Vector_base<draco::IndexType<unsigned int, draco::CornerIndex_tag_type_>, std::allocator<draco::IndexType<unsigned int, draco::CornerIndex_tag_type_>>>::_Vector_impl_data", ptr %6, i32 0, i32 0
  %8 = load ptr, ptr %7, align 8, !tbaa !61
  %9 = load i64, ptr %4, align 8, !tbaa !69
  %10 = getelementptr inbounds nuw %"class.draco::IndexType.30", ptr %8, i64 %9
  ret ptr %10
}

; Function Attrs: mustprogress nounwind uwtable
define linkonce_odr noundef i32 @_ZNK5draco9IndexTypeIjNS_21VertexIndex_tag_type_EE5valueEv(ptr noundef nonnull align 4 dereferenceable(4) %0) #5 comdat align 2 {
  %2 = alloca ptr, align 8
  store ptr %0, ptr %2, align 8, !tbaa !75
  %3 = load ptr, ptr %2, align 8
  %4 = getelementptr inbounds nuw %"class.draco::IndexType", ptr %3, i32 0, i32 0
  %5 = load i32, ptr %4, align 4, !tbaa !97
  ret i32 %5
}

; Function Attrs: mustprogress nounwind uwtable
define linkonce_odr noundef zeroext i1 @_ZNK5draco9IndexTypeIjNS_21CornerIndex_tag_type_EEeqERKS2_(ptr noundef nonnull align 4 dereferenceable(4) %0, ptr noundef nonnull align 4 dereferenceable(4) %1) #5 comdat align 2 {
  %3 = alloca ptr, align 8
  %4 = alloca ptr, align 8
  store ptr %0, ptr %3, align 8, !tbaa !78
  store ptr %1, ptr %4, align 8, !tbaa !78
  %5 = load ptr, ptr %3, align 8
  %6 = getelementptr inbounds nuw %"class.draco::IndexType.30", ptr %5, i32 0, i32 0
  %7 = load i32, ptr %6, align 4, !tbaa !89
  %8 = load ptr, ptr %4, align 8, !tbaa !78
  %9 = getelementptr inbounds nuw %"class.draco::IndexType.30", ptr %8, i32 0, i32 0
  %10 = load i32, ptr %9, align 4, !tbaa !89
  %11 = icmp eq i32 %7, %10
  ret i1 %11
}

; Function Attrs: inlinehint mustprogress nounwind uwtable
define linkonce_odr i32 @_ZNK5draco24MeshAttributeCornerTable14LeftMostCornerENS_9IndexTypeIjNS_21VertexIndex_tag_type_EEE(ptr noundef nonnull align 8 dereferenceable(224) %0, i32 %1) #9 comdat align 2 {
  %3 = alloca %"class.draco::IndexType.30", align 4
  %4 = alloca %"class.draco::IndexType", align 4
  %5 = alloca ptr, align 8
  %6 = getelementptr inbounds nuw %"class.draco::IndexType", ptr %4, i32 0, i32 0
  store i32 %1, ptr %6, align 4
  store ptr %0, ptr %5, align 8, !tbaa !3
  %7 = load ptr, ptr %5, align 8
  %8 = getelementptr inbounds nuw %"class.draco::MeshAttributeCornerTable", ptr %7, i32 0, i32 4
  %9 = call noundef i32 @_ZNK5draco9IndexTypeIjNS_21VertexIndex_tag_type_EE5valueEv(ptr noundef nonnull align 4 dereferenceable(4) %4)
  %10 = zext i32 %9 to i64
  %11 = call noundef nonnull align 4 dereferenceable(4) ptr @_ZNKSt6vectorIN5draco9IndexTypeIjNS0_21CornerIndex_tag_type_EEESaIS3_EEixEm(ptr noundef nonnull align 8 dereferenceable(24) %8, i64 noundef %10) #3
  call void @llvm.memcpy.p0.p0.i64(ptr align 4 %3, ptr align 4 %11, i64 4, i1 false), !tbaa.struct !85
  %12 = getelementptr inbounds nuw %"class.draco::IndexType.30", ptr %3, i32 0, i32 0
  %13 = load i32, ptr %12, align 4
  ret i32 %13
}

; Function Attrs: mustprogress nounwind uwtable
define linkonce_odr noundef zeroext i1 @_ZNK5draco18VertexRingIteratorINS_24MeshAttributeCornerTableEE3EndEv(ptr noundef nonnull align 8 dereferenceable(17) %0) #5 comdat align 2 {
  %2 = alloca ptr, align 8
  store ptr %0, ptr %2, align 8, !tbaa !129
  %3 = load ptr, ptr %2, align 8
  %4 = getelementptr inbounds nuw %"class.draco::VertexRingIterator", ptr %3, i32 0, i32 2
  %5 = call noundef zeroext i1 @_ZNK5draco9IndexTypeIjNS_21CornerIndex_tag_type_EEeqERKS2_(ptr noundef nonnull align 4 dereferenceable(4) %4, ptr noundef nonnull align 4 dereferenceable(4) @_ZN5dracoL19kInvalidCornerIndexE)
  ret i1 %5
}

; Function Attrs: mustprogress uwtable
define linkonce_odr void @_ZN5draco18VertexRingIteratorINS_24MeshAttributeCornerTableEEC2EPKS1_NS_9IndexTypeIjNS_21VertexIndex_tag_type_EEE(ptr noundef nonnull align 8 dereferenceable(17) %0, ptr noundef %1, i32 %2) unnamed_addr #4 comdat align 2 {
  %4 = alloca %"class.draco::IndexType", align 4
  %5 = alloca ptr, align 8
  %6 = alloca ptr, align 8
  %7 = alloca %"class.draco::IndexType", align 4
  %8 = getelementptr inbounds nuw %"class.draco::IndexType", ptr %4, i32 0, i32 0
  store i32 %2, ptr %8, align 4
  store ptr %0, ptr %5, align 8, !tbaa !129
  store ptr %1, ptr %6, align 8, !tbaa !3
  %9 = load ptr, ptr %5, align 8
  %10 = getelementptr inbounds nuw %"class.draco::VertexRingIterator", ptr %9, i32 0, i32 0
  %11 = load ptr, ptr %6, align 8, !tbaa !3
  store ptr %11, ptr %10, align 8, !tbaa !131
  %12 = getelementptr inbounds nuw %"class.draco::VertexRingIterator", ptr %9, i32 0, i32 1
  %13 = load ptr, ptr %6, align 8, !tbaa !3
  call void @llvm.memcpy.p0.p0.i64(ptr align 4 %7, ptr align 4 %4, i64 4, i1 false), !tbaa.struct !85
  %14 = getelementptr inbounds nuw %"class.draco::IndexType", ptr %7, i32 0, i32 0
  %15 = load i32, ptr %14, align 4
  %16 = call i32 @_ZNK5draco24MeshAttributeCornerTable14LeftMostCornerENS_9IndexTypeIjNS_21VertexIndex_tag_type_EEE(ptr noundef nonnull align 8 dereferenceable(224) %13, i32 %15)
  %17 = getelementptr inbounds nuw %"class.draco::IndexType.30", ptr %12, i32 0, i32 0
  store i32 %16, ptr %17, align 8
  %18 = getelementptr inbounds nuw %"class.draco::VertexRingIterator", ptr %9, i32 0, i32 2
  %19 = getelementptr inbounds nuw %"class.draco::VertexRingIterator", ptr %9, i32 0, i32 1
  call void @llvm.memcpy.p0.p0.i64(ptr align 4 %18, ptr align 8 %19, i64 4, i1 false), !tbaa.struct !85
  %20 = getelementptr inbounds nuw %"class.draco::VertexRingIterator", ptr %9, i32 0, i32 3
  store i8 1, ptr %20, align 8, !tbaa !133
  ret void
}

; Function Attrs: mustprogress uwtable
define noundef i32 @_ZNK5draco24MeshAttributeCornerTable16ConfidentValenceENS_9IndexTypeIjNS_21VertexIndex_tag_type_EEE(ptr noundef nonnull align 8 dereferenceable(224) %0, i32 %1) #4 align 2 {
  %3 = alloca %"class.draco::IndexType", align 4
  %4 = alloca ptr, align 8
  %5 = alloca %"class.draco::VertexRingIterator", align 8
  %6 = alloca %"class.draco::IndexType", align 4
  %7 = alloca i32, align 4
  %8 = getelementptr inbounds nuw %"class.draco::IndexType", ptr %3, i32 0, i32 0
  store i32 %1, ptr %8, align 4
  store ptr %0, ptr %4, align 8, !tbaa !3
  %9 = load ptr, ptr %4, align 8
  call void @llvm.lifetime.start.p0(i64 24, ptr %5) #3
  call void @llvm.memcpy.p0.p0.i64(ptr align 4 %6, ptr align 4 %3, i64 4, i1 false), !tbaa.struct !85
  %10 = getelementptr inbounds nuw %"class.draco::IndexType", ptr %6, i32 0, i32 0
  %11 = load i32, ptr %10, align 4
  call void @_ZN5draco18VertexRingIteratorINS_24MeshAttributeCornerTableEEC2EPKS1_NS_9IndexTypeIjNS_21VertexIndex_tag_type_EEE(ptr noundef nonnull align 8 dereferenceable(17) %5, ptr noundef %9, i32 %11)
  call void @llvm.lifetime.start.p0(i64 4, ptr %7) #3
  store i32 0, ptr %7, align 4, !tbaa !84
  br label %12

12:                                               ; preds = %18, %2
  %13 = call noundef zeroext i1 @_ZNK5draco18VertexRingIteratorINS_24MeshAttributeCornerTableEE3EndEv(ptr noundef nonnull align 8 dereferenceable(17) %5)
  %14 = xor i1 %13, true
  br i1 %14, label %15, label %19

15:                                               ; preds = %12
  %16 = load i32, ptr %7, align 4, !tbaa !84
  %17 = add nsw i32 %16, 1
  store i32 %17, ptr %7, align 4, !tbaa !84
  br label %18

18:                                               ; preds = %15
  call void @_ZN5draco18VertexRingIteratorINS_24MeshAttributeCornerTableEE4NextEv(ptr noundef nonnull align 8 dereferenceable(17) %5)
  br label %12, !llvm.loop !128

19:                                               ; preds = %12
  %20 = load i32, ptr %7, align 4, !tbaa !84
  call void @llvm.lifetime.end.p0(i64 4, ptr %7) #3
  call void @llvm.lifetime.end.p0(i64 24, ptr %5) #3
  ret i32 %20
}

; Function Attrs: mustprogress nounwind uwtable
define linkonce_odr noundef zeroext i1 @_ZNK5draco9IndexTypeIjNS_21VertexIndex_tag_type_EEeqERKS2_(ptr noundef nonnull align 4 dereferenceable(4) %0, ptr noundef nonnull align 4 dereferenceable(4) %1) #5 comdat align 2 {
  %3 = alloca ptr, align 8
  %4 = alloca ptr, align 8
  store ptr %0, ptr %3, align 8, !tbaa !75
  store ptr %1, ptr %4, align 8, !tbaa !75
  %5 = load ptr, ptr %3, align 8
  %6 = getelementptr inbounds nuw %"class.draco::IndexType", ptr %5, i32 0, i32 0
  %7 = load i32, ptr %6, align 4, !tbaa !97
  %8 = load ptr, ptr %4, align 8, !tbaa !75
  %9 = getelementptr inbounds nuw %"class.draco::IndexType", ptr %8, i32 0, i32 0
  %10 = load i32, ptr %9, align 4, !tbaa !97
  %11 = icmp eq i32 %7, %10
  ret i1 %11
}

; Function Attrs: mustprogress uwtable
define noundef i32 @_ZNK5draco24MeshAttributeCornerTable7ValenceENS_9IndexTypeIjNS_21VertexIndex_tag_type_EEE(ptr noundef nonnull align 8 dereferenceable(224) %0, i32 %1) #4 align 2 {
  %3 = alloca i32, align 4
  %4 = alloca %"class.draco::IndexType", align 4
  %5 = alloca ptr, align 8
  %6 = alloca %"class.draco::IndexType", align 4
  %7 = getelementptr inbounds nuw %"class.draco::IndexType", ptr %4, i32 0, i32 0
  store i32 %1, ptr %7, align 4
  store ptr %0, ptr %5, align 8, !tbaa !3
  %8 = load ptr, ptr %5, align 8
  %9 = call noundef zeroext i1 @_ZNK5draco9IndexTypeIjNS_21VertexIndex_tag_type_EEeqERKS2_(ptr noundef nonnull align 4 dereferenceable(4) %4, ptr noundef nonnull align 4 dereferenceable(4) @_ZN5dracoL19kInvalidVertexIndexE)
  br i1 %9, label %10, label %11

10:                                               ; preds = %2
  store i32 -1, ptr %3, align 4
  br label %15

11:                                               ; preds = %2
  call void @llvm.memcpy.p0.p0.i64(ptr align 4 %6, ptr align 4 %4, i64 4, i1 false), !tbaa.struct !85
  %12 = getelementptr inbounds nuw %"class.draco::IndexType", ptr %6, i32 0, i32 0
  %13 = load i32, ptr %12, align 4
  %14 = call noundef i32 @_ZNK5draco24MeshAttributeCornerTable16ConfidentValenceENS_9IndexTypeIjNS_21VertexIndex_tag_type_EEE(ptr noundef nonnull align 8 dereferenceable(224) %8, i32 %13)
  store i32 %14, ptr %3, align 4
  br label %15

15:                                               ; preds = %11, %10
  %16 = load i32, ptr %3, align 4
  ret i32 %16
}