; Function Attrs: mustprogress uwtable
define noundef i32 @_ZNK5draco24MeshAttributeCornerTable7ValenceENS_9IndexTypeIjNS_21VertexIndex_tag_type_EEE(ptr noundef nonnull align 8 dereferenceable(224) %0, i32 %1) local_unnamed_addr #4 align 2 {
  %3 = alloca %"class.draco::VertexRingIterator", align 8
  %4 = icmp eq i32 %1, -1
  br i1 %4, label %16, label %5

5:                                                ; preds = %2
  call void @llvm.lifetime.start.p0(i64 24, ptr nonnull %3) #19
  store ptr %0, ptr %3, align 8, !tbaa !156
  %6 = getelementptr inbounds nuw i8, ptr %3, i64 8
  %7 = getelementptr inbounds nuw i8, ptr %0, i64 112
  %8 = zext i32 %1 to i64
  %9 = load ptr, ptr %7, align 8, !tbaa !58
  %10 = getelementptr inbounds nuw %"class.draco::IndexType.30", ptr %9, i64 %8
  %.sroa.0.0.copyload.i.i.i = load i32, ptr %10, align 4, !tbaa !67
  store i32 %.sroa.0.0.copyload.i.i.i, ptr %6, align 8
  %11 = getelementptr inbounds nuw i8, ptr %3, i64 12
  store i32 %.sroa.0.0.copyload.i.i.i, ptr %11, align 4, !tbaa !67
  %12 = getelementptr inbounds nuw i8, ptr %3, i64 16
  store i8 1, ptr %12, align 8, !tbaa !159
  %13 = icmp eq i32 %.sroa.0.0.copyload.i.i.i, -1
  br i1 %13, label %_ZNK5draco24MeshAttributeCornerTable16ConfidentValenceENS_9IndexTypeIjNS_21VertexIndex_tag_type_EEE.exit, label %.lr.ph.i

.lr.ph.i:                                         ; preds = %5, %.lr.ph.i
  %.03.i = phi i32 [ %14, %.lr.ph.i ], [ 0, %5 ]
  %14 = add nuw nsw i32 %.03.i, 1
  call void @_ZN5draco18VertexRingIteratorINS_24MeshAttributeCornerTableEE4NextEv(ptr noundef nonnull align 8 dereferenceable(17) %3)
  %.pr.i = load i32, ptr %11, align 4, !tbaa !160
  %15 = icmp eq i32 %.pr.i, -1
  br i1 %15, label %_ZNK5draco24MeshAttributeCornerTable16ConfidentValenceENS_9IndexTypeIjNS_21VertexIndex_tag_type_EEE.exit, label %.lr.ph.i, !llvm.loop !161

_ZNK5draco24MeshAttributeCornerTable16ConfidentValenceENS_9IndexTypeIjNS_21VertexIndex_tag_type_EEE.exit: ; preds = %.lr.ph.i, %5
  %.0.lcssa.i = phi i32 [ 0, %5 ], [ %14, %.lr.ph.i ]
  call void @llvm.lifetime.end.p0(i64 24, ptr nonnull %3) #19
  br label %16

16:                                               ; preds = %2, %_ZNK5draco24MeshAttributeCornerTable16ConfidentValenceENS_9IndexTypeIjNS_21VertexIndex_tag_type_EEE.exit
  %.0 = phi i32 [ %.0.lcssa.i, %_ZNK5draco24MeshAttributeCornerTable16ConfidentValenceENS_9IndexTypeIjNS_21VertexIndex_tag_type_EEE.exit ], [ -1, %2 ]
  ret i32 %.0
}